target datalayout = "e-m:e-p270:32:32-p271:32:32-p272:64:64-i64:64-i128:128-f80:128-n8:16:32:64-S128"
target triple = "x86_64-pc-linux-gnu"

%struct.pmix_lock_t = type { i32, %struct.pmix_mutex_t, %union.pthread_cond_t, i8 }
%struct.pmix_mutex_t = type { %struct.pmix_object_t, %union.pthread_mutex_t }
%struct.pmix_object_t = type { %union.pthread_mutex_t, ptr, i32, %struct.pmix_tma }
%struct.pmix_tma = type { ptr, ptr, ptr, ptr, ptr, ptr, ptr, ptr }
%union.pthread_mutex_t = type { %struct.__pthread_mutex_s }
%struct.__pthread_mutex_s = type { i32, i32, i32, i32, i32, i16, i16, %struct.__pthread_internal_list }
%struct.__pthread_internal_list = type { ptr, ptr }
%union.pthread_cond_t = type { %struct.__pthread_cond_s }
%struct.__pthread_cond_s = type { %union.__atomic_wide_counter, %union.__atomic_wide_counter, [2 x i32], [2 x i32], i32, i32, [2 x i32] }
%union.__atomic_wide_counter = type { i64 }
%struct.timeval = type { i64, i64 }
%struct.pmix_list_t = type { %struct.pmix_object_t, %struct.pmix_list_item_t, i64 }
%struct.pmix_list_item_t = type { %struct.pmix_object_t, ptr, ptr, i32 }
%struct.pmix_cb_t = type { %struct.pmix_list_item_t, %struct.event, %struct.pmix_lock_t, i8, i32, i32, i8, %struct.pmix_buffer_t, %union.anon.9, i64, ptr, %struct.pmix_name_t, ptr, ptr, ptr, ptr, i64, ptr, i64, ptr, i8, i64, %struct.pmix_list_t, i8, ptr, i8, ptr, ptr }
%struct.event = type { %struct.event_callback, %union.anon.2, i32, ptr, %union.anon.4, i16, i16, %struct.timeval }
%struct.event_callback = type { %struct.anon.0, i16, i8, i8, %union.anon.1, ptr }
%struct.anon.0 = type { ptr, ptr }
%union.anon.1 = type { ptr }
%union.anon.2 = type { %struct.anon.3 }
%struct.anon.3 = type { ptr, ptr }
%union.anon.4 = type { %struct.anon.5 }
%struct.anon.5 = type { %struct.anon.6, %struct.timeval }
%struct.anon.6 = type { ptr, ptr }
%struct.pmix_buffer_t = type { %struct.pmix_object_t, i8, ptr, ptr, ptr, i64, i64 }
%union.anon.9 = type { ptr }
%struct.pmix_name_t = type { ptr, i32 }

; Function Attrs: inlinehint nounwind uwtable
define internal void @pmix_mutex_unlock(ptr noundef %0) #2 {
  %2 = alloca ptr, align 8
  store ptr %0, ptr %2, align 8, !tbaa !67
  %3 = load ptr, ptr %2, align 8, !tbaa !67
  %4 = getelementptr inbounds nuw %struct.pmix_mutex_t, ptr %3, i32 0, i32 1
  %5 = call i32 @pthread_mutex_unlock(ptr noundef %4) #11
  ret void
}

; Function Attrs: inlinehint nounwind uwtable
define internal void @pmix_mutex_lock(ptr noundef %0) #2 {
  %2 = alloca ptr, align 8
  store ptr %0, ptr %2, align 8, !tbaa !67
  %3 = load ptr, ptr %2, align 8, !tbaa !67
  %4 = getelementptr inbounds nuw %struct.pmix_mutex_t, ptr %3, i32 0, i32 1
  %5 = call i32 @pthread_mutex_lock(ptr noundef %4) #11
  ret void
}

; Function Attrs: inlinehint nounwind uwtable
define internal void @pmix_atomic_wmb() #2 {
  fence release
  ret void
}

; Function Attrs: nounwind uwtable
define internal void @op_cbfunc(i32 noundef %0, ptr noundef %1) #0 {
  %3 = alloca i32, align 4
  %4 = alloca ptr, align 8
  %5 = alloca ptr, align 8
  store i32 %0, ptr %3, align 4, !tbaa !48
  store ptr %1, ptr %4, align 8, !tbaa !47
  call void @llvm.lifetime.start.p0(i64 8, ptr %5) #11
  %6 = load ptr, ptr %4, align 8, !tbaa !47
  store ptr %6, ptr %5, align 8, !tbaa !47
  %7 = load i32, ptr %3, align 4, !tbaa !48
  %8 = load ptr, ptr %5, align 8, !tbaa !47
  %9 = getelementptr inbounds nuw %struct.pmix_cb_t, ptr %8, i32 0, i32 4
  store i32 %7, ptr %9, align 4, !tbaa !66
  call void @pmix_atomic_wmb()
  br label %10

10:                                               ; preds = %2
  %11 = load ptr, ptr %5, align 8, !tbaa !47
  %12 = getelementptr inbounds nuw %struct.pmix_cb_t, ptr %11, i32 0, i32 2
  %13 = getelementptr inbounds nuw %struct.pmix_lock_t, ptr %12, i32 0, i32 1
  call void @pmix_mutex_lock(ptr noundef %13)
  %14 = load ptr, ptr %5, align 8, !tbaa !47
  %15 = getelementptr inbounds nuw %struct.pmix_cb_t, ptr %14, i32 0, i32 2
  %16 = getelementptr inbounds nuw %struct.pmix_lock_t, ptr %15, i32 0, i32 3
  store volatile i8 0, ptr %16, align 8, !tbaa !52
  call void @pmix_atomic_wmb()
  %17 = load ptr, ptr %5, align 8, !tbaa !47
  %18 = getelementptr inbounds nuw %struct.pmix_cb_t, ptr %17, i32 0, i32 2
  %19 = getelementptr inbounds nuw %struct.pmix_lock_t, ptr %18, i32 0, i32 2
  %20 = call i32 @pthread_cond_broadcast(ptr noundef %19) #11
  %21 = load ptr, ptr %5, align 8, !tbaa !47
  %22 = getelementptr inbounds nuw %struct.pmix_cb_t, ptr %21, i32 0, i32 2
  %23 = getelementptr inbounds nuw %struct.pmix_lock_t, ptr %22, i32 0, i32 1
  call void @pmix_mutex_unlock(ptr noundef %23)
  br label %24

24:                                               ; preds = %10
  br label %25

25:                                               ; preds = %24
  call void @llvm.lifetime.end.p0(i64 8, ptr %5) #11
  ret void
}